; Function Attrs: inlinehint mustprogress nounwind uwtable
define internal fastcc void @"_ZZN5arrow11AllCompleteERKSt6vectorINS_6FutureINS_8internal5EmptyEEESaIS4_EEEN3$_0D2Ev"(ptr noundef nonnull readonly align 8 captures(none) dereferenceable(32) %0) unnamed_addr #7 align 2 personality ptr @__gxx_personality_v0 {
  %2 = getelementptr inbounds nuw i8, ptr %0, i64 24
  %3 = load ptr, ptr %2, align 8, !tbaa !43
  %.not.i.i.i = icmp eq ptr %3, null
  br i1 %.not.i.i.i, label %_ZN5arrow6FutureINS_8internal5EmptyEED2Ev.exit, label %4

4:                                                ; preds = %1
  %5 = getelementptr inbounds nuw i8, ptr %3, i64 8
  %6 = load atomic i64, ptr %5 acquire, align 8
  %7 = icmp eq i64 %6, 4294967297
  %8 = trunc i64 %6 to i32
  br i1 %7, label %9, label %17

9:                                                ; preds = %4
  store i32 0, ptr %5, align 8, !tbaa !50
  %10 = getelementptr inbounds nuw i8, ptr %3, i64 12
  store i32 0, ptr %10, align 4, !tbaa !53
  %11 = load ptr, ptr %3, align 8, !tbaa !6
  %12 = getelementptr inbounds nuw i8, ptr %11, i64 16
  %13 = load ptr, ptr %12, align 8
  tail call void %13(ptr noundef nonnull align 8 dereferenceable(16) %3) #24
  %14 = load ptr, ptr %3, align 8, !tbaa !6
  %15 = getelementptr inbounds nuw i8, ptr %14, i64 24
  %16 = load ptr, ptr %15, align 8
  tail call void %16(ptr noundef nonnull align 8 dereferenceable(16) %3) #24
  br label %_ZN5arrow6FutureINS_8internal5EmptyEED2Ev.exit

17:                                               ; preds = %4
  %18 = load i8, ptr @__libc_single_threaded, align 1, !tbaa !54
  %.not.i.i.i.i = icmp eq i8 %18, 0
  br i1 %.not.i.i.i.i, label %21, label %19

19:                                               ; preds = %17
  %20 = add nsw i32 %8, -1
  store i32 %20, ptr %5, align 4, !tbaa !55
  br label %_ZN9__gnu_cxx27__exchange_and_add_dispatchEPii.exit.i.i.i.i

21:                                               ; preds = %17
  %22 = atomicrmw volatile add ptr %5, i32 -1 acq_rel, align 4
  br label %_ZN9__gnu_cxx27__exchange_and_add_dispatchEPii.exit.i.i.i.i

_ZN9__gnu_cxx27__exchange_and_add_dispatchEPii.exit.i.i.i.i: ; preds = %21, %19
  %.0.i.i.i.i.i = phi i32 [ %8, %19 ], [ %22, %21 ]
  %23 = icmp eq i32 %.0.i.i.i.i.i, 1
  br i1 %23, label %24, label %_ZN5arrow6FutureINS_8internal5EmptyEED2Ev.exit, !prof !56

24:                                               ; preds = %_ZN9__gnu_cxx27__exchange_and_add_dispatchEPii.exit.i.i.i.i
  tail call void @_ZNSt16_Sp_counted_baseILN9__gnu_cxx12_Lock_policyE2EE24_M_release_last_use_coldEv(ptr noundef nonnull align 8 dereferenceable(16) %3) #24
  br label %_ZN5arrow6FutureINS_8internal5EmptyEED2Ev.exit

_ZN5arrow6FutureINS_8internal5EmptyEED2Ev.exit:   ; preds = %1, %9, %_ZN9__gnu_cxx27__exchange_and_add_dispatchEPii.exit.i.i.i.i, %24
  %25 = getelementptr inbounds nuw i8, ptr %0, i64 8
  %.val = load ptr, ptr %25, align 8, !tbaa !43
  %.not.i.i = icmp eq ptr %.val, null
  br i1 %.not.i.i, label %_ZNSt12__shared_ptrIZN5arrow11AllCompleteERKSt6vectorINS0_6FutureINS0_8internal5EmptyEEESaIS5_EEE5StateLN9__gnu_cxx12_Lock_policyE2EED2Ev.exit, label %26

26:                                               ; preds = %_ZN5arrow6FutureINS_8internal5EmptyEED2Ev.exit
  %27 = getelementptr inbounds nuw i8, ptr %.val, i64 8
  %28 = load atomic i64, ptr %27 acquire, align 8
  %29 = icmp eq i64 %28, 4294967297
  %30 = trunc i64 %28 to i32
  br i1 %29, label %31, label %39

31:                                               ; preds = %26
  store i32 0, ptr %27, align 8, !tbaa !50
  %32 = getelementptr inbounds nuw i8, ptr %.val, i64 12
  store i32 0, ptr %32, align 4, !tbaa !53
  %33 = load ptr, ptr %.val, align 8, !tbaa !6
  %34 = getelementptr inbounds nuw i8, ptr %33, i64 16
  %35 = load ptr, ptr %34, align 8
  tail call void %35(ptr noundef nonnull align 8 dereferenceable(16) %.val) #24
  %36 = load ptr, ptr %.val, align 8, !tbaa !6
  %37 = getelementptr inbounds nuw i8, ptr %36, i64 24
  %38 = load ptr, ptr %37, align 8
  tail call void %38(ptr noundef nonnull align 8 dereferenceable(16) %.val) #24
  br label %_ZNSt12__shared_ptrIZN5arrow11AllCompleteERKSt6vectorINS0_6FutureINS0_8internal5EmptyEEESaIS5_EEE5StateLN9__gnu_cxx12_Lock_policyE2EED2Ev.exit

39:                                               ; preds = %26
  %40 = load i8, ptr @__libc_single_threaded, align 1, !tbaa !54
  %.not.i.i.i1 = icmp eq i8 %40, 0
  br i1 %.not.i.i.i1, label %43, label %41

41:                                               ; preds = %39
  %42 = add nsw i32 %30, -1
  store i32 %42, ptr %27, align 4, !tbaa !55
  br label %_ZN9__gnu_cxx27__exchange_and_add_dispatchEPii.exit.i.i.i

43:                                               ; preds = %39
  %44 = atomicrmw volatile add ptr %27, i32 -1 acq_rel, align 4
  br label %_ZN9__gnu_cxx27__exchange_and_add_dispatchEPii.exit.i.i.i

_ZN9__gnu_cxx27__exchange_and_add_dispatchEPii.exit.i.i.i: ; preds = %43, %41
  %.0.i.i.i.i = phi i32 [ %30, %41 ], [ %44, %43 ]
  %45 = icmp eq i32 %.0.i.i.i.i, 1
  br i1 %45, label %46, label %_ZNSt12__shared_ptrIZN5arrow11AllCompleteERKSt6vectorINS0_6FutureINS0_8internal5EmptyEEESaIS5_EEE5StateLN9__gnu_cxx12_Lock_policyE2EED2Ev.exit, !prof !56

46:                                               ; preds = %_ZN9__gnu_cxx27__exchange_and_add_dispatchEPii.exit.i.i.i
  tail call void @_ZNSt16_Sp_counted_baseILN9__gnu_cxx12_Lock_policyE2EE24_M_release_last_use_coldEv(ptr noundef nonnull align 8 dereferenceable(16) %.val) #24
  br label %_ZNSt12__shared_ptrIZN5arrow11AllCompleteERKSt6vectorINS0_6FutureINS0_8internal5EmptyEEESaIS5_EEE5StateLN9__gnu_cxx12_Lock_policyE2EED2Ev.exit

_ZNSt12__shared_ptrIZN5arrow11AllCompleteERKSt6vectorINS0_6FutureINS0_8internal5EmptyEEESaIS5_EEE5StateLN9__gnu_cxx12_Lock_policyE2EED2Ev.exit: ; preds = %_ZN5arrow6FutureINS_8internal5EmptyEED2Ev.exit, %31, %_ZN9__gnu_cxx27__exchange_and_add_dispatchEPii.exit.i.i.i, %46
  ret void
}